target datalayout = "e-m:e-p270:32:32-p271:32:32-p272:64:64-i64:64-i128:128-f80:128-n8:16:32:64-S128"
target triple = "x86_64-pc-linux-gnu"

%"struct.Luau::CodeGen::X64::RegisterX64" = type { i8 }
%"struct.Luau::CodeGen::X64::OperandX64" = type { i8, %"struct.Luau::CodeGen::X64::RegisterX64", %"struct.Luau::CodeGen::X64::RegisterX64", i8, i32 }
%"class.Luau::CodeGen::X64::IrCallWrapperX64" = type { ptr, ptr, i32, %"struct.std::array", i32, i32, i32, %"struct.Luau::CodeGen::X64::OperandX64", %"struct.std::array.0", %"struct.std::array.0" }
%"struct.std::array" = type { [6 x %"struct.Luau::CodeGen::X64::CallArgument"] }
%"struct.Luau::CodeGen::X64::CallArgument" = type <{ i8, [3 x i8], %"struct.Luau::CodeGen::X64::OperandX64", %"struct.Luau::CodeGen::IrOp", %"struct.Luau::CodeGen::X64::OperandX64", i8, [3 x i8] }>
%"struct.Luau::CodeGen::IrOp" = type { i32 }
%"struct.std::array.0" = type { [16 x i8] }

@_ZN4Luau7CodeGen3X64L5noregE = internal constant %"struct.Luau::CodeGen::X64::RegisterX64" { i8 -128 }, align 1

; Function Attrs: inlinehint mustprogress nounwind uwtable
define linkonce_odr dso_local void @_ZSt9__fill_a1IhEN9__gnu_cxx11__enable_ifIXsr9__is_byteIT_EE7__valueEvE6__typeEPS2_S5_RKS2_(ptr noundef %0, ptr noundef %1, ptr noundef nonnull align 1 dereferenceable(1) %2) #8 comdat {
  %4 = alloca ptr, align 8
  %5 = alloca ptr, align 8
  %6 = alloca ptr, align 8
  %7 = alloca i8, align 1
  %8 = alloca i64, align 8
  store ptr %0, ptr %4, align 8, !tbaa !36
  store ptr %1, ptr %5, align 8, !tbaa !36
  store ptr %2, ptr %6, align 8, !tbaa !36
  call void @llvm.lifetime.start.p0(i64 1, ptr %7) #10
  %9 = load ptr, ptr %6, align 8, !tbaa !36
  %10 = load i8, ptr %9, align 1, !tbaa !27
  store i8 %10, ptr %7, align 1, !tbaa !27
  call void @llvm.lifetime.start.p0(i64 8, ptr %8) #10
  %11 = load ptr, ptr %5, align 8, !tbaa !36
  %12 = load ptr, ptr %4, align 8, !tbaa !36
  %13 = ptrtoint ptr %11 to i64
  %14 = ptrtoint ptr %12 to i64
  %15 = sub i64 %13, %14
  store i64 %15, ptr %8, align 8, !tbaa !83
  %16 = load i64, ptr %8, align 8, !tbaa !83
  %17 = icmp ne i64 %16, 0
  br i1 %17, label %18, label %24

18:                                               ; preds = %3
  %19 = load ptr, ptr %4, align 8, !tbaa !36
  %20 = load i8, ptr %7, align 1, !tbaa !27
  %21 = zext i8 %20 to i32
  %22 = trunc i32 %21 to i8
  %23 = load i64, ptr %8, align 8, !tbaa !83
  call void @llvm.memset.p0.i64(ptr align 1 %19, i8 %22, i64 %23, i1 false)
  br label %24

24:                                               ; preds = %18, %3
  call void @llvm.lifetime.end.p0(i64 8, ptr %8) #10
  call void @llvm.lifetime.end.p0(i64 1, ptr %7) #10
  ret void
}

; Function Attrs: inlinehint mustprogress uwtable
define linkonce_odr dso_local void @_ZSt8__fill_aIPhhEvT_S1_RKT0_(ptr noundef %0, ptr noundef %1, ptr noundef nonnull align 1 dereferenceable(1) %2) #1 comdat {
  %4 = alloca ptr, align 8
  %5 = alloca ptr, align 8
  %6 = alloca ptr, align 8
  store ptr %0, ptr %4, align 8, !tbaa !36
  store ptr %1, ptr %5, align 8, !tbaa !36
  store ptr %2, ptr %6, align 8, !tbaa !36
  %7 = load ptr, ptr %4, align 8, !tbaa !36
  %8 = load ptr, ptr %5, align 8, !tbaa !36
  %9 = load ptr, ptr %6, align 8, !tbaa !36
  call void @_ZSt9__fill_a1IhEN9__gnu_cxx11__enable_ifIXsr9__is_byteIT_EE7__valueEvE6__typeEPS2_S5_RKS2_(ptr noundef %7, ptr noundef %8, ptr noundef nonnull align 1 dereferenceable(1) %9)
  ret void
}

; Function Attrs: mustprogress nounwind uwtable
define linkonce_odr dso_local noundef ptr @_ZNSt14__array_traitsIhLm16EE6_S_ptrERA16_Kh(ptr noundef nonnull align 1 dereferenceable(16) %0) #3 comdat align 2 {
  %2 = alloca ptr, align 8
  store ptr %0, ptr %2, align 8, !tbaa !36
  %3 = load ptr, ptr %2, align 8, !tbaa !36
  %4 = getelementptr inbounds [16 x i8], ptr %3, i64 0, i64 0
  ret ptr %4
}

; Function Attrs: inlinehint mustprogress uwtable
define linkonce_odr dso_local noundef ptr @_ZSt10__fill_n_aIPhmhET_S1_T0_RKT1_St26random_access_iterator_tag(ptr noundef %0, i64 noundef %1, ptr noundef nonnull align 1 dereferenceable(1) %2) #1 comdat {
  %4 = alloca ptr, align 8
  %5 = alloca ptr, align 8
  %6 = alloca i64, align 8
  %7 = alloca ptr, align 8
  store ptr %0, ptr %5, align 8, !tbaa !36
  store i64 %1, ptr %6, align 8, !tbaa !83
  store ptr %2, ptr %7, align 8, !tbaa !36
  %8 = load i64, ptr %6, align 8, !tbaa !83
  %9 = icmp ule i64 %8, 0
  br i1 %9, label %10, label %12

10:                                               ; preds = %3
  %11 = load ptr, ptr %5, align 8, !tbaa !36
  store ptr %11, ptr %4, align 8
  br label %21

12:                                               ; preds = %3
  %13 = load ptr, ptr %5, align 8, !tbaa !36
  %14 = load ptr, ptr %5, align 8, !tbaa !36
  %15 = load i64, ptr %6, align 8, !tbaa !83
  %16 = getelementptr inbounds nuw i8, ptr %14, i64 %15
  %17 = load ptr, ptr %7, align 8, !tbaa !36
  call void @_ZSt8__fill_aIPhhEvT_S1_RKT0_(ptr noundef %13, ptr noundef %16, ptr noundef nonnull align 1 dereferenceable(1) %17)
  %18 = load ptr, ptr %5, align 8, !tbaa !36
  %19 = load i64, ptr %6, align 8, !tbaa !83
  %20 = getelementptr inbounds nuw i8, ptr %18, i64 %19
  store ptr %20, ptr %4, align 8
  br label %21

21:                                               ; preds = %12, %10
  %22 = load ptr, ptr %4, align 8
  ret ptr %22
}

; Function Attrs: inlinehint mustprogress nounwind uwtable
define linkonce_odr dso_local void @_ZSt19__iterator_categoryIPhENSt15iterator_traitsIT_E17iterator_categoryERKS2_(ptr noundef nonnull align 8 dereferenceable(8) %0) #8 comdat {
  %2 = alloca ptr, align 8
  store ptr %0, ptr %2, align 8, !tbaa !131
  ret void
}

; Function Attrs: inlinehint mustprogress nounwind uwtable
define linkonce_odr dso_local noundef i64 @_ZSt17__size_to_integerm(i64 noundef %0) #8 comdat {
  %2 = alloca i64, align 8
  store i64 %0, ptr %2, align 8, !tbaa !83
  %3 = load i64, ptr %2, align 8, !tbaa !83
  ret i64 %3
}

; Function Attrs: mustprogress nounwind willreturn memory(none) uwtable
define linkonce_odr dso_local noundef ptr @_ZNSt5arrayIhLm16EE4dataEv(ptr noundef nonnull align 1 dereferenceable(16) %0) #7 comdat align 2 {
  %2 = alloca ptr, align 8
  store ptr %0, ptr %2, align 8, !tbaa !34
  %3 = load ptr, ptr %2, align 8
  %4 = getelementptr inbounds nuw %"struct.std::array.0", ptr %3, i32 0, i32 0
  %5 = call noundef ptr @_ZNSt14__array_traitsIhLm16EE6_S_ptrERA16_Kh(ptr noundef nonnull align 1 dereferenceable(16) %4) #10
  ret ptr %5
}

; Function Attrs: mustprogress nounwind uwtable
define linkonce_odr dso_local void @_ZN4Luau7CodeGen4IrOpC2Ev(ptr noundef nonnull align 4 dereferenceable(4) %0) unnamed_addr #3 comdat align 2 {
  %2 = alloca ptr, align 8
  store ptr %0, ptr %2, align 8, !tbaa !88
  %3 = load ptr, ptr %2, align 8
  %4 = load i32, ptr %3, align 4
  %5 = and i32 %4, -16
  %6 = or i32 %5, 0
  store i32 %6, ptr %3, align 4
  %7 = load i32, ptr %3, align 4
  %8 = and i32 %7, 15
  %9 = or i32 %8, 0
  store i32 %9, ptr %3, align 4
  ret void
}

; Function Attrs: inlinehint mustprogress uwtable
define linkonce_odr dso_local noundef ptr @_ZSt6fill_nIPhmhET_S1_T0_RKT1_(ptr noundef %0, i64 noundef %1, ptr noundef nonnull align 1 dereferenceable(1) %2) #1 comdat {
  %4 = alloca ptr, align 8
  %5 = alloca i64, align 8
  %6 = alloca ptr, align 8
  store ptr %0, ptr %4, align 8, !tbaa !36
  store i64 %1, ptr %5, align 8, !tbaa !83
  store ptr %2, ptr %6, align 8, !tbaa !36
  %7 = load ptr, ptr %4, align 8, !tbaa !36
  %8 = load i64, ptr %5, align 8, !tbaa !83
  %9 = call noundef i64 @_ZSt17__size_to_integerm(i64 noundef %8)
  %10 = load ptr, ptr %6, align 8, !tbaa !36
  call void @_ZSt19__iterator_categoryIPhENSt15iterator_traitsIT_E17iterator_categoryERKS2_(ptr noundef nonnull align 8 dereferenceable(8) %4)
  %11 = call noundef ptr @_ZSt10__fill_n_aIPhmhET_S1_T0_RKT1_St26random_access_iterator_tag(ptr noundef %7, i64 noundef %9, ptr noundef nonnull align 1 dereferenceable(1) %10)
  ret ptr %11
}

; Function Attrs: mustprogress nounwind willreturn memory(none) uwtable
define linkonce_odr dso_local noundef i64 @_ZNKSt5arrayIhLm16EE4sizeEv(ptr noundef nonnull align 1 dereferenceable(16) %0) #7 comdat align 2 {
  %2 = alloca ptr, align 8
  store ptr %0, ptr %2, align 8, !tbaa !34
  ret i64 16
}

; Function Attrs: mustprogress nounwind willreturn memory(none) uwtable
define linkonce_odr dso_local noundef ptr @_ZNSt5arrayIhLm16EE5beginEv(ptr noundef nonnull align 1 dereferenceable(16) %0) #7 comdat align 2 {
  %2 = alloca ptr, align 8
  store ptr %0, ptr %2, align 8, !tbaa !34
  %3 = load ptr, ptr %2, align 8
  %4 = call noundef ptr @_ZNSt5arrayIhLm16EE4dataEv(ptr noundef nonnull align 1 dereferenceable(16) %3) #11
  ret ptr %4
}

; Function Attrs: inlinehint mustprogress uwtable
define linkonce_odr dso_local void @_ZN4Luau7CodeGen3X6412CallArgumentC2Ev(ptr noundef nonnull align 4 dereferenceable(25) %0) unnamed_addr #1 comdat align 2 {
  %2 = alloca ptr, align 8
  %3 = alloca %"struct.Luau::CodeGen::X64::RegisterX64", align 1
  %4 = alloca %"struct.Luau::CodeGen::X64::RegisterX64", align 1
  store ptr %0, ptr %2, align 8, !tbaa !39
  %5 = load ptr, ptr %2, align 8
  %6 = getelementptr inbounds nuw %"struct.Luau::CodeGen::X64::CallArgument", ptr %5, i32 0, i32 0
  store i8 0, ptr %6, align 4, !tbaa !41
  %7 = getelementptr inbounds nuw %"struct.Luau::CodeGen::X64::CallArgument", ptr %5, i32 0, i32 2
  call void @llvm.memcpy.p0.p0.i64(ptr align 1 %3, ptr align 1 @_ZN4Luau7CodeGen3X64L5noregE, i64 1, i1 false), !tbaa.struct !26
  %8 = getelementptr inbounds nuw %"struct.Luau::CodeGen::X64::RegisterX64", ptr %3, i32 0, i32 0
  %9 = load i8, ptr %8, align 1
  call void @_ZN4Luau7CodeGen3X6410OperandX64C2ENS1_11RegisterX64E(ptr noundef nonnull align 4 dereferenceable(8) %7, i8 %9)
  %10 = getelementptr inbounds nuw %"struct.Luau::CodeGen::X64::CallArgument", ptr %5, i32 0, i32 3
  call void @_ZN4Luau7CodeGen4IrOpC2Ev(ptr noundef nonnull align 4 dereferenceable(4) %10)
  %11 = getelementptr inbounds nuw %"struct.Luau::CodeGen::X64::CallArgument", ptr %5, i32 0, i32 4
  call void @llvm.memcpy.p0.p0.i64(ptr align 1 %4, ptr align 1 @_ZN4Luau7CodeGen3X64L5noregE, i64 1, i1 false), !tbaa.struct !26
  %12 = getelementptr inbounds nuw %"struct.Luau::CodeGen::X64::RegisterX64", ptr %4, i32 0, i32 0
  %13 = load i8, ptr %12, align 1
  call void @_ZN4Luau7CodeGen3X6410OperandX64C2ENS1_11RegisterX64E(ptr noundef nonnull align 4 dereferenceable(8) %11, i8 %13)
  %14 = getelementptr inbounds nuw %"struct.Luau::CodeGen::X64::CallArgument", ptr %5, i32 0, i32 5
  store i8 1, ptr %14, align 4, !tbaa !49
  ret void
}

; Function Attrs: mustprogress uwtable
define linkonce_odr dso_local void @_ZNSt5arrayIhLm16EE4fillERKh(ptr noundef nonnull align 1 dereferenceable(16) %0, ptr noundef nonnull align 1 dereferenceable(1) %1) #0 comdat align 2 {
  %3 = alloca ptr, align 8
  %4 = alloca ptr, align 8
  store ptr %0, ptr %3, align 8, !tbaa !34
  store ptr %1, ptr %4, align 8, !tbaa !36
  %5 = load ptr, ptr %3, align 8
  %6 = call noundef ptr @_ZNSt5arrayIhLm16EE5beginEv(ptr noundef nonnull align 1 dereferenceable(16) %5) #11
  %7 = call noundef i64 @_ZNKSt5arrayIhLm16EE4sizeEv(ptr noundef nonnull align 1 dereferenceable(16) %5) #11
  %8 = load ptr, ptr %4, align 8, !tbaa !36
  %9 = call noundef ptr @_ZSt6fill_nIPhmhET_S1_T0_RKT1_(ptr noundef %6, i64 noundef %7, ptr noundef nonnull align 1 dereferenceable(1) %8)
  ret void
}

; Function Attrs: mustprogress nounwind uwtable
define linkonce_odr dso_local void @_ZN4Luau7CodeGen3X6410OperandX64C2ENS1_11RegisterX64E(ptr noundef nonnull align 4 dereferenceable(8) %0, i8 %1) unnamed_addr #3 comdat align 2 {
  %3 = alloca %"struct.Luau::CodeGen::X64::RegisterX64", align 1
  %4 = alloca ptr, align 8
  %5 = getelementptr inbounds nuw %"struct.Luau::CodeGen::X64::RegisterX64", ptr %3, i32 0, i32 0
  store i8 %1, ptr %5, align 1
  store ptr %0, ptr %4, align 8, !tbaa !30
  %6 = load ptr, ptr %4, align 8
  %7 = getelementptr inbounds nuw %"struct.Luau::CodeGen::X64::OperandX64", ptr %6, i32 0, i32 0
  store i8 0, ptr %7, align 4, !tbaa !32
  %8 = getelementptr inbounds nuw %"struct.Luau::CodeGen::X64::OperandX64", ptr %6, i32 0, i32 1
  call void @llvm.memcpy.p0.p0.i64(ptr align 1 %8, ptr align 1 @_ZN4Luau7CodeGen3X64L5noregE, i64 1, i1 false), !tbaa.struct !26
  %9 = getelementptr inbounds nuw %"struct.Luau::CodeGen::X64::OperandX64", ptr %6, i32 0, i32 2
  call void @llvm.memcpy.p0.p0.i64(ptr align 2 %9, ptr align 1 %3, i64 1, i1 false), !tbaa.struct !26
  %10 = getelementptr inbounds nuw %"struct.Luau::CodeGen::X64::OperandX64", ptr %6, i32 0, i32 3
  %11 = load i8, ptr %10, align 1
  %12 = and i8 %11, -16
  %13 = or i8 %12, 0
  store i8 %13, ptr %10, align 1
  %14 = getelementptr inbounds nuw %"struct.Luau::CodeGen::X64::OperandX64", ptr %6, i32 0, i32 3
  %15 = load i8, ptr %14, align 1
  %16 = and i8 %15, 15
  %17 = or i8 %16, 16
  store i8 %17, ptr %14, align 1
  %18 = getelementptr inbounds nuw %"struct.Luau::CodeGen::X64::OperandX64", ptr %6, i32 0, i32 4
  store i32 0, ptr %18, align 4, !tbaa !33
  ret void
}

; Function Attrs: inlinehint mustprogress uwtable
define linkonce_odr dso_local void @_ZNSt5arrayIN4Luau7CodeGen3X6412CallArgumentELm6EEC2Ev(ptr noundef nonnull align 4 dereferenceable(168) %0) unnamed_addr #1 comdat align 2 {
  %2 = alloca ptr, align 8
  store ptr %0, ptr %2, align 8, !tbaa !28
  %3 = load ptr, ptr %2, align 8
  %4 = getelementptr inbounds nuw %"struct.std::array", ptr %3, i32 0, i32 0
  %5 = getelementptr inbounds [6 x %"struct.Luau::CodeGen::X64::CallArgument"], ptr %4, i32 0, i32 0
  %6 = getelementptr inbounds %"struct.Luau::CodeGen::X64::CallArgument", ptr %5, i64 6
  br label %7

7:                                                ; preds = %7, %1
  %8 = phi ptr [ %5, %1 ], [ %9, %7 ]
  call void @_ZN4Luau7CodeGen3X6412CallArgumentC2Ev(ptr noundef nonnull align 4 dereferenceable(25) %8)
  %9 = getelementptr inbounds %"struct.Luau::CodeGen::X64::CallArgument", ptr %8, i64 1
  %10 = icmp eq ptr %9, %6
  br i1 %10, label %11, label %7

11:                                               ; preds = %7
  ret void
}

; Function Attrs: mustprogress uwtable
define dso_local void @_ZN4Luau7CodeGen3X6416IrCallWrapperX64C2ERNS1_13IrRegAllocX64ERNS1_18AssemblyBuilderX64Ej(ptr noundef nonnull align 8 dereferenceable(240) %0, ptr noundef nonnull align 8 dereferenceable(256) %1, ptr noundef nonnull align 8 dereferenceable(252) %2, i32 noundef %3) unnamed_addr #0 align 2 {
  %5 = alloca ptr, align 8
  %6 = alloca ptr, align 8
  %7 = alloca ptr, align 8
  %8 = alloca i32, align 4
  %9 = alloca %"struct.Luau::CodeGen::X64::RegisterX64", align 1
  %10 = alloca i8, align 1
  %11 = alloca i8, align 1
  store ptr %0, ptr %5, align 8, !tbaa !4
  store ptr %1, ptr %6, align 8, !tbaa !9
  store ptr %2, ptr %7, align 8, !tbaa !11
  store i32 %3, ptr %8, align 4, !tbaa !13
  %12 = load ptr, ptr %5, align 8
  %13 = getelementptr inbounds nuw %"class.Luau::CodeGen::X64::IrCallWrapperX64", ptr %12, i32 0, i32 0
  %14 = load ptr, ptr %6, align 8, !tbaa !9
  store ptr %14, ptr %13, align 8, !tbaa !9
  %15 = getelementptr inbounds nuw %"class.Luau::CodeGen::X64::IrCallWrapperX64", ptr %12, i32 0, i32 1
  %16 = load ptr, ptr %7, align 8, !tbaa !11
  store ptr %16, ptr %15, align 8, !tbaa !11
  %17 = getelementptr inbounds nuw %"class.Luau::CodeGen::X64::IrCallWrapperX64", ptr %12, i32 0, i32 2
  %18 = load i32, ptr %8, align 4, !tbaa !13
  store i32 %18, ptr %17, align 8, !tbaa !15
  %19 = getelementptr inbounds nuw %"class.Luau::CodeGen::X64::IrCallWrapperX64", ptr %12, i32 0, i32 3
  call void @_ZNSt5arrayIN4Luau7CodeGen3X6412CallArgumentELm6EEC2Ev(ptr noundef nonnull align 4 dereferenceable(168) %19)
  %20 = getelementptr inbounds nuw %"class.Luau::CodeGen::X64::IrCallWrapperX64", ptr %12, i32 0, i32 4
  store i32 0, ptr %20, align 4, !tbaa !23
  %21 = getelementptr inbounds nuw %"class.Luau::CodeGen::X64::IrCallWrapperX64", ptr %12, i32 0, i32 5
  store i32 0, ptr %21, align 8, !tbaa !24
  %22 = getelementptr inbounds nuw %"class.Luau::CodeGen::X64::IrCallWrapperX64", ptr %12, i32 0, i32 6
  store i32 0, ptr %22, align 4, !tbaa !25
  %23 = getelementptr inbounds nuw %"class.Luau::CodeGen::X64::IrCallWrapperX64", ptr %12, i32 0, i32 7
  call void @llvm.memcpy.p0.p0.i64(ptr align 1 %9, ptr align 1 @_ZN4Luau7CodeGen3X64L5noregE, i64 1, i1 false), !tbaa.struct !26
  %24 = getelementptr inbounds nuw %"struct.Luau::CodeGen::X64::RegisterX64", ptr %9, i32 0, i32 0
  %25 = load i8, ptr %24, align 1
  call void @_ZN4Luau7CodeGen3X6410OperandX64C2ENS1_11RegisterX64E(ptr noundef nonnull align 4 dereferenceable(8) %23, i8 %25)
  %26 = getelementptr inbounds nuw %"class.Luau::CodeGen::X64::IrCallWrapperX64", ptr %12, i32 0, i32 8
  call void @llvm.lifetime.start.p0(i64 1, ptr %10) #10
  store i8 0, ptr %10, align 1, !tbaa !27
  call void @_ZNSt5arrayIhLm16EE4fillERKh(ptr noundef nonnull align 1 dereferenceable(16) %26, ptr noundef nonnull align 1 dereferenceable(1) %10)
  call void @llvm.lifetime.end.p0(i64 1, ptr %10) #10
  %27 = getelementptr inbounds nuw %"class.Luau::CodeGen::X64::IrCallWrapperX64", ptr %12, i32 0, i32 9
  call void @llvm.lifetime.start.p0(i64 1, ptr %11) #10
  store i8 0, ptr %11, align 1, !tbaa !27
  call void @_ZNSt5arrayIhLm16EE4fillERKh(ptr noundef nonnull align 1 dereferenceable(16) %27, ptr noundef nonnull align 1 dereferenceable(1) %11)
  call void @llvm.lifetime.end.p0(i64 1, ptr %11) #10
  ret void
}