; Function Attrs: mustprogress nofree norecurse nosync nounwind memory(argmem: write) uwtable
define dso_local void @_ZN4Luau7CodeGen3X6416IrCallWrapperX64C2ERNS1_13IrRegAllocX64ERNS1_18AssemblyBuilderX64Ej(ptr noundef nonnull writeonly align 8 captures(none) dereferenceable(240) initializes((0, 20)) %0, ptr noundef nonnull align 8 dereferenceable(256) %1, ptr noundef nonnull align 8 dereferenceable(252) %2, i32 noundef %3) unnamed_addr #0 align 2 {
  store ptr %1, ptr %0, align 8, !tbaa !4
  %5 = getelementptr inbounds nuw i8, ptr %0, i64 8
  store ptr %2, ptr %5, align 8, !tbaa !9
  %6 = getelementptr inbounds nuw i8, ptr %0, i64 16
  store i32 %3, ptr %6, align 8, !tbaa !11
  %7 = getelementptr inbounds nuw i8, ptr %0, i64 20
  br label %8

8:                                                ; preds = %8, %4
  %.idx.i = phi i64 [ 0, %4 ], [ %.add.i, %8 ]
  %.ptr.i = getelementptr inbounds nuw i8, ptr %7, i64 %.idx.i
  store i8 0, ptr %.ptr.i, align 4, !tbaa !20
  %9 = getelementptr inbounds nuw i8, ptr %.ptr.i, i64 4
  store i8 0, ptr %9, align 4, !tbaa !25
  %10 = getelementptr inbounds nuw i8, ptr %.ptr.i, i64 5
  store i8 -128, ptr %10, align 1, !tbaa !26
  %11 = getelementptr inbounds nuw i8, ptr %.ptr.i, i64 6
  store i8 -128, ptr %11, align 2, !tbaa !26
  %12 = getelementptr inbounds nuw i8, ptr %.ptr.i, i64 7
  store i8 16, ptr %12, align 1
  %13 = getelementptr inbounds nuw i8, ptr %.ptr.i, i64 8
  %14 = getelementptr inbounds nuw i8, ptr %.ptr.i, i64 17
  tail call void @llvm.memset.p0.i64(ptr noundef nonnull align 4 dereferenceable(9) %13, i8 0, i64 9, i1 false)
  store i8 -128, ptr %14, align 1, !tbaa !26
  %15 = getelementptr inbounds nuw i8, ptr %.ptr.i, i64 18
  store i8 -128, ptr %15, align 2, !tbaa !26
  %16 = getelementptr inbounds nuw i8, ptr %.ptr.i, i64 19
  store i8 16, ptr %16, align 1
  %17 = getelementptr inbounds nuw i8, ptr %.ptr.i, i64 20
  store i32 0, ptr %17, align 4, !tbaa !27
  %18 = getelementptr inbounds nuw i8, ptr %.ptr.i, i64 24
  store i8 1, ptr %18, align 4, !tbaa !28
  %.add.i = add nuw nsw i64 %.idx.i, 28
  %19 = icmp eq i64 %.add.i, 168
  br i1 %19, label %_ZNSt5arrayIN4Luau7CodeGen3X6412CallArgumentELm6EEC2Ev.exit, label %8

_ZNSt5arrayIN4Luau7CodeGen3X6412CallArgumentELm6EEC2Ev.exit: ; preds = %8
  %20 = getelementptr inbounds nuw i8, ptr %0, i64 188
  %21 = getelementptr inbounds nuw i8, ptr %0, i64 201
  tail call void @llvm.memset.p0.i64(ptr noundef nonnull align 4 dereferenceable(13) %20, i8 0, i64 13, i1 false)
  store i8 -128, ptr %21, align 1, !tbaa !26
  %22 = getelementptr inbounds nuw i8, ptr %0, i64 202
  store i8 -128, ptr %22, align 2, !tbaa !26
  %23 = getelementptr inbounds nuw i8, ptr %0, i64 203
  store i8 16, ptr %23, align 1
  %24 = getelementptr inbounds nuw i8, ptr %0, i64 204
  tail call void @llvm.memset.p0.i64(ptr noundef nonnull align 4 dereferenceable(36) %24, i8 0, i64 36, i1 false)
  ret void
}